target datalayout = "e-m:e-p270:32:32-p271:32:32-p272:64:64-i64:64-i128:128-f80:128-n8:16:32:64-S128"
target triple = "x86_64-pc-linux-gnu"

%"class.Stockfish::Move" = type { i16 }
%"struct.Stockfish::TTEntry" = type { i16, i8, i8, %"class.Stockfish::Move", i16, i16 }

; Function Attrs: mustprogress nounwind uwtable
define linkonce_odr dso_local noundef zeroext i1 @_ZNK9Stockfish4MovecvbEv(ptr noundef nonnull align 2 dereferenceable(2) %0) #4 comdat align 2 {
  %2 = alloca ptr, align 8
  store ptr %0, ptr %2, align 8
  %3 = load ptr, ptr %2, align 8
  %4 = getelementptr inbounds %"class.Stockfish::Move", ptr %3, i32 0, i32 0
  %5 = load i16, ptr %4, align 2
  %6 = zext i16 %5 to i32
  %7 = icmp ne i32 %6, 0
  ret i1 %7
}

; Function Attrs: mustprogress nounwind uwtable
define dso_local void @_ZN9Stockfish7TTEntry4saveEmibNS_5BoundEiNS_4MoveEih(ptr noundef nonnull align 2 dereferenceable(10) %0, i64 noundef %1, i32 noundef %2, i1 noundef zeroext %3, i32 noundef %4, i32 noundef %5, i16 %6, i32 noundef %7, i8 noundef zeroext %8) #4 align 2 {
  %10 = alloca %"class.Stockfish::Move", align 2
  %11 = alloca ptr, align 8
  %12 = alloca i64, align 8
  %13 = alloca i32, align 4
  %14 = alloca i8, align 1
  %15 = alloca i32, align 4
  %16 = alloca i32, align 4
  %17 = alloca i32, align 4
  %18 = alloca i8, align 1
  %19 = getelementptr inbounds %"class.Stockfish::Move", ptr %10, i32 0, i32 0
  store i16 %6, ptr %19, align 2
  store ptr %0, ptr %11, align 8
  store i64 %1, ptr %12, align 8
  store i32 %2, ptr %13, align 4
  %20 = zext i1 %3 to i8
  store i8 %20, ptr %14, align 1
  store i32 %4, ptr %15, align 4
  store i32 %5, ptr %16, align 4
  store i32 %7, ptr %17, align 4
  store i8 %8, ptr %18, align 1
  %21 = load ptr, ptr %11, align 8
  %22 = call noundef zeroext i1 @_ZNK9Stockfish4MovecvbEv(ptr noundef nonnull align 2 dereferenceable(2) %10)
  br i1 %22, label %31, label %23

23:                                               ; preds = %9
  %24 = load i64, ptr %12, align 8
  %25 = trunc i64 %24 to i16
  %26 = zext i16 %25 to i32
  %27 = getelementptr inbounds %"struct.Stockfish::TTEntry", ptr %21, i32 0, i32 0
  %28 = load i16, ptr %27, align 2
  %29 = zext i16 %28 to i32
  %30 = icmp ne i32 %26, %29
  br i1 %30, label %31, label %33

31:                                               ; preds = %23, %9
  %32 = getelementptr inbounds %"struct.Stockfish::TTEntry", ptr %21, i32 0, i32 3
  call void @llvm.memcpy.p0.p0.i64(ptr align 2 %32, ptr align 2 %10, i64 2, i1 false)
  br label %33

33:                                               ; preds = %31, %23
  %34 = load i32, ptr %15, align 4
  %35 = icmp eq i32 %34, 3
  br i1 %35, label %57, label %36

36:                                               ; preds = %33
  %37 = load i64, ptr %12, align 8
  %38 = trunc i64 %37 to i16
  %39 = zext i16 %38 to i32
  %40 = getelementptr inbounds %"struct.Stockfish::TTEntry", ptr %21, i32 0, i32 0
  %41 = load i16, ptr %40, align 2
  %42 = zext i16 %41 to i32
  %43 = icmp ne i32 %39, %42
  br i1 %43, label %57, label %44

44:                                               ; preds = %36
  %45 = load i32, ptr %16, align 4
  %46 = sub nsw i32 %45, -7
  %47 = load i8, ptr %14, align 1
  %48 = trunc i8 %47 to i1
  %49 = zext i1 %48 to i32
  %50 = mul nsw i32 2, %49
  %51 = add nsw i32 %46, %50
  %52 = getelementptr inbounds %"struct.Stockfish::TTEntry", ptr %21, i32 0, i32 1
  %53 = load i8, ptr %52, align 2
  %54 = zext i8 %53 to i32
  %55 = sub nsw i32 %54, 4
  %56 = icmp sgt i32 %51, %55
  br i1 %56, label %57, label %83

57:                                               ; preds = %44, %36, %33
  %58 = load i64, ptr %12, align 8
  %59 = trunc i64 %58 to i16
  %60 = getelementptr inbounds %"struct.Stockfish::TTEntry", ptr %21, i32 0, i32 0
  store i16 %59, ptr %60, align 2
  %61 = load i32, ptr %16, align 4
  %62 = sub nsw i32 %61, -7
  %63 = trunc i32 %62 to i8
  %64 = getelementptr inbounds %"struct.Stockfish::TTEntry", ptr %21, i32 0, i32 1
  store i8 %63, ptr %64, align 2
  %65 = load i8, ptr %18, align 1
  %66 = zext i8 %65 to i32
  %67 = load i8, ptr %14, align 1
  %68 = trunc i8 %67 to i1
  %69 = zext i1 %68 to i8
  %70 = zext i8 %69 to i32
  %71 = shl i32 %70, 2
  %72 = or i32 %66, %71
  %73 = load i32, ptr %15, align 4
  %74 = or i32 %72, %73
  %75 = trunc i32 %74 to i8
  %76 = getelementptr inbounds %"struct.Stockfish::TTEntry", ptr %21, i32 0, i32 2
  store i8 %75, ptr %76, align 1
  %77 = load i32, ptr %13, align 4
  %78 = trunc i32 %77 to i16
  %79 = getelementptr inbounds %"struct.Stockfish::TTEntry", ptr %21, i32 0, i32 4
  store i16 %78, ptr %79, align 2
  %80 = load i32, ptr %17, align 4
  %81 = trunc i32 %80 to i16
  %82 = getelementptr inbounds %"struct.Stockfish::TTEntry", ptr %21, i32 0, i32 5
  store i16 %81, ptr %82, align 2
  br label %83

83:                                               ; preds = %57, %44
  ret void
}