; Function Attrs: mustprogress nofree norecurse nosync nounwind willreturn memory(argmem: readwrite) uwtable
define dso_local void @_ZN9Stockfish7TTEntry4saveEmibNS_5BoundEiNS_4MoveEih(ptr nocapture noundef nonnull align 2 dereferenceable(10) %0, i64 noundef %1, i32 noundef %2, i1 noundef zeroext %3, i32 noundef %4, i32 noundef %5, i16 %6, i32 noundef %7, i8 noundef zeroext %8) local_unnamed_addr #3 align 2 {
  %.not18 = icmp eq i16 %6, 0
  %10 = load i16, ptr %0, align 2
  %11 = trunc i64 %1 to i16
  %.not = icmp eq i16 %10, %11
  %or.cond = select i1 %.not18, i1 %.not, i1 false
  br i1 %or.cond, label %14, label %12

12:                                               ; preds = %9
  %13 = getelementptr inbounds i8, ptr %0, i64 4
  store i16 %6, ptr %13, align 2
  br label %14

14:                                               ; preds = %9, %12
  %15 = icmp ne i32 %4, 3
  %or.cond16 = select i1 %15, i1 %.not, i1 false
  br i1 %or.cond16, label %16, label %24

16:                                               ; preds = %14
  %17 = select i1 %3, i32 9, i32 7
  %18 = add i32 %17, %5
  %19 = getelementptr inbounds i8, ptr %0, i64 2
  %20 = load i8, ptr %19, align 2
  %21 = zext i8 %20 to i32
  %22 = add nsw i32 %21, -4
  %23 = icmp sgt i32 %18, %22
  br i1 %23, label %24, label %38

24:                                               ; preds = %16, %14
  store i16 %11, ptr %0, align 2
  %25 = trunc i32 %5 to i8
  %26 = add i8 %25, 7
  %27 = getelementptr inbounds i8, ptr %0, i64 2
  store i8 %26, ptr %27, align 2
  %28 = zext i8 %8 to i32
  %29 = select i1 %3, i32 4, i32 0
  %30 = or i32 %29, %28
  %31 = or i32 %30, %4
  %32 = trunc i32 %31 to i8
  %33 = getelementptr inbounds i8, ptr %0, i64 3
  store i8 %32, ptr %33, align 1
  %34 = trunc i32 %2 to i16
  %35 = getelementptr inbounds i8, ptr %0, i64 6
  store i16 %34, ptr %35, align 2
  %36 = trunc i32 %7 to i16
  %37 = getelementptr inbounds i8, ptr %0, i64 8
  store i16 %36, ptr %37, align 2
  br label %38

38:                                               ; preds = %24, %16
  ret void
}